target datalayout = "e-m:e-p270:32:32-p271:32:32-p272:64:64-i64:64-i128:128-f80:128-n8:16:32:64-S128"
target triple = "x86_64-pc-linux-gnu"

%struct.jsmntok_t = type { i32, i64, i64, i32, i32 }
%struct.cgltf_dispersion = type { float }

@.str.267 = private unnamed_addr constant [11 x i8] c"dispersion\00", align 1

; Function Attrs: inlinehint nounwind willreturn memory(read) uwtable
define available_externally double @atof(ptr noundef nonnull %0) #13 {
  %2 = alloca ptr, align 8
  store ptr %0, ptr %2, align 8
  %3 = load ptr, ptr %2, align 8
  %4 = call double @strtod(ptr noundef %3, ptr noundef null) #16
  ret double %4
}

; Function Attrs: nounwind uwtable
define internal i32 @cgltf_skip_json(ptr noundef %0, i32 noundef %1) #0 {
  %3 = alloca i32, align 4
  %4 = alloca ptr, align 8
  %5 = alloca i32, align 4
  %6 = alloca i32, align 4
  %7 = alloca i32, align 4
  store ptr %0, ptr %4, align 8
  store i32 %1, ptr %5, align 4
  call void @llvm.lifetime.start.p0(i64 4, ptr %6) #16
  %8 = load i32, ptr %5, align 4
  %9 = add nsw i32 %8, 1
  store i32 %9, ptr %6, align 4
  br label %10

10:                                               ; preds = %42, %2
  %11 = load i32, ptr %5, align 4
  %12 = load i32, ptr %6, align 4
  %13 = icmp slt i32 %11, %12
  br i1 %13, label %14, label %45

14:                                               ; preds = %10
  %15 = load ptr, ptr %4, align 8
  %16 = load i32, ptr %5, align 4
  %17 = sext i32 %16 to i64
  %18 = getelementptr inbounds %struct.jsmntok_t, ptr %15, i64 %17
  %19 = getelementptr inbounds nuw %struct.jsmntok_t, ptr %18, i32 0, i32 0
  %20 = load i32, ptr %19, align 8
  switch i32 %20, label %41 [
    i32 1, label %21
    i32 2, label %31
    i32 4, label %40
    i32 3, label %40
  ]

21:                                               ; preds = %14
  %22 = load ptr, ptr %4, align 8
  %23 = load i32, ptr %5, align 4
  %24 = sext i32 %23 to i64
  %25 = getelementptr inbounds %struct.jsmntok_t, ptr %22, i64 %24
  %26 = getelementptr inbounds nuw %struct.jsmntok_t, ptr %25, i32 0, i32 3
  %27 = load i32, ptr %26, align 8
  %28 = mul nsw i32 %27, 2
  %29 = load i32, ptr %6, align 4
  %30 = add nsw i32 %29, %28
  store i32 %30, ptr %6, align 4
  br label %42

31:                                               ; preds = %14
  %32 = load ptr, ptr %4, align 8
  %33 = load i32, ptr %5, align 4
  %34 = sext i32 %33 to i64
  %35 = getelementptr inbounds %struct.jsmntok_t, ptr %32, i64 %34
  %36 = getelementptr inbounds nuw %struct.jsmntok_t, ptr %35, i32 0, i32 3
  %37 = load i32, ptr %36, align 8
  %38 = load i32, ptr %6, align 4
  %39 = add nsw i32 %38, %37
  store i32 %39, ptr %6, align 4
  br label %42

40:                                               ; preds = %14, %14
  br label %42

41:                                               ; preds = %14
  store i32 -1, ptr %3, align 4
  store i32 1, ptr %7, align 4
  br label %47

42:                                               ; preds = %40, %31, %21
  %43 = load i32, ptr %5, align 4
  %44 = add nsw i32 %43, 1
  store i32 %44, ptr %5, align 4
  br label %10

45:                                               ; preds = %10
  %46 = load i32, ptr %5, align 4
  store i32 %46, ptr %3, align 4
  store i32 1, ptr %7, align 4
  br label %47

47:                                               ; preds = %45, %41
  call void @llvm.lifetime.end.p0(i64 4, ptr %6) #16
  %48 = load i32, ptr %3, align 4
  ret i32 %48
}

; Function Attrs: nounwind uwtable
define internal float @cgltf_json_to_float(ptr noundef %0, ptr noundef %1) #0 {
  %3 = alloca float, align 4
  %4 = alloca ptr, align 8
  %5 = alloca ptr, align 8
  %6 = alloca [128 x i8], align 16
  %7 = alloca i32, align 4
  store ptr %0, ptr %4, align 8
  store ptr %1, ptr %5, align 8
  %8 = load ptr, ptr %4, align 8
  %9 = getelementptr inbounds nuw %struct.jsmntok_t, ptr %8, i32 0, i32 0
  %10 = load i32, ptr %9, align 8
  %11 = icmp ne i32 %10, 4
  br i1 %11, label %12, label %13

12:                                               ; preds = %2
  store float -1.000000e+00, ptr %3, align 4
  br label %49

13:                                               ; preds = %2
  call void @llvm.lifetime.start.p0(i64 128, ptr %6) #16
  call void @llvm.lifetime.start.p0(i64 4, ptr %7) #16
  %14 = load ptr, ptr %4, align 8
  %15 = getelementptr inbounds nuw %struct.jsmntok_t, ptr %14, i32 0, i32 2
  %16 = load i64, ptr %15, align 8
  %17 = load ptr, ptr %4, align 8
  %18 = getelementptr inbounds nuw %struct.jsmntok_t, ptr %17, i32 0, i32 1
  %19 = load i64, ptr %18, align 8
  %20 = sub nsw i64 %16, %19
  %21 = icmp ult i64 %20, 128
  br i1 %21, label %22, label %31

22:                                               ; preds = %13
  %23 = load ptr, ptr %4, align 8
  %24 = getelementptr inbounds nuw %struct.jsmntok_t, ptr %23, i32 0, i32 2
  %25 = load i64, ptr %24, align 8
  %26 = load ptr, ptr %4, align 8
  %27 = getelementptr inbounds nuw %struct.jsmntok_t, ptr %26, i32 0, i32 1
  %28 = load i64, ptr %27, align 8
  %29 = sub nsw i64 %25, %28
  %30 = trunc i64 %29 to i32
  br label %32

31:                                               ; preds = %13
  br label %32

32:                                               ; preds = %31, %22
  %33 = phi i32 [ %30, %22 ], [ 127, %31 ]
  store i32 %33, ptr %7, align 4
  %34 = getelementptr inbounds [128 x i8], ptr %6, i64 0, i64 0
  %35 = load ptr, ptr %5, align 8
  %36 = load ptr, ptr %4, align 8
  %37 = getelementptr inbounds nuw %struct.jsmntok_t, ptr %36, i32 0, i32 1
  %38 = load i64, ptr %37, align 8
  %39 = getelementptr inbounds i8, ptr %35, i64 %38
  %40 = load i32, ptr %7, align 4
  %41 = sext i32 %40 to i64
  %42 = call ptr @strncpy(ptr noundef %34, ptr noundef %39, i64 noundef %41) #16
  %43 = load i32, ptr %7, align 4
  %44 = sext i32 %43 to i64
  %45 = getelementptr inbounds [128 x i8], ptr %6, i64 0, i64 %44
  store i8 0, ptr %45, align 1
  %46 = getelementptr inbounds [128 x i8], ptr %6, i64 0, i64 0
  %47 = call double @atof(ptr noundef %46) #17
  %48 = fptrunc double %47 to float
  store float %48, ptr %3, align 4
  call void @llvm.lifetime.end.p0(i64 4, ptr %7) #16
  call void @llvm.lifetime.end.p0(i64 128, ptr %6) #16
  br label %49

49:                                               ; preds = %32, %12
  %50 = load float, ptr %3, align 4
  ret float %50
}

; Function Attrs: nounwind uwtable
define internal i32 @cgltf_json_strcmp(ptr noundef %0, ptr noundef %1, ptr noundef %2) #0 {
  %4 = alloca i32, align 4
  %5 = alloca ptr, align 8
  %6 = alloca ptr, align 8
  %7 = alloca ptr, align 8
  %8 = alloca i64, align 8
  %9 = alloca i64, align 8
  store ptr %0, ptr %5, align 8
  store ptr %1, ptr %6, align 8
  store ptr %2, ptr %7, align 8
  %10 = load ptr, ptr %5, align 8
  %11 = getelementptr inbounds nuw %struct.jsmntok_t, ptr %10, i32 0, i32 0
  %12 = load i32, ptr %11, align 8
  %13 = icmp ne i32 %12, 3
  br i1 %13, label %14, label %15

14:                                               ; preds = %3
  store i32 -1, ptr %4, align 4
  br label %40

15:                                               ; preds = %3
  call void @llvm.lifetime.start.p0(i64 8, ptr %8) #16
  %16 = load ptr, ptr %7, align 8
  %17 = call i64 @strlen(ptr noundef %16) #17
  store i64 %17, ptr %8, align 8
  call void @llvm.lifetime.start.p0(i64 8, ptr %9) #16
  %18 = load ptr, ptr %5, align 8
  %19 = getelementptr inbounds nuw %struct.jsmntok_t, ptr %18, i32 0, i32 2
  %20 = load i64, ptr %19, align 8
  %21 = load ptr, ptr %5, align 8
  %22 = getelementptr inbounds nuw %struct.jsmntok_t, ptr %21, i32 0, i32 1
  %23 = load i64, ptr %22, align 8
  %24 = sub nsw i64 %20, %23
  store i64 %24, ptr %9, align 8
  %25 = load i64, ptr %8, align 8
  %26 = load i64, ptr %9, align 8
  %27 = icmp eq i64 %25, %26
  br i1 %27, label %28, label %37

28:                                               ; preds = %15
  %29 = load ptr, ptr %6, align 8
  %30 = load ptr, ptr %5, align 8
  %31 = getelementptr inbounds nuw %struct.jsmntok_t, ptr %30, i32 0, i32 1
  %32 = load i64, ptr %31, align 8
  %33 = getelementptr inbounds i8, ptr %29, i64 %32
  %34 = load ptr, ptr %7, align 8
  %35 = load i64, ptr %8, align 8
  %36 = call i32 @strncmp(ptr noundef %33, ptr noundef %34, i64 noundef %35) #17
  br label %38

37:                                               ; preds = %15
  br label %38

38:                                               ; preds = %37, %28
  %39 = phi i32 [ %36, %28 ], [ 128, %37 ]
  store i32 %39, ptr %4, align 4
  call void @llvm.lifetime.end.p0(i64 8, ptr %9) #16
  call void @llvm.lifetime.end.p0(i64 8, ptr %8) #16
  br label %40

40:                                               ; preds = %38, %14
  %41 = load i32, ptr %4, align 4
  ret i32 %41
}

; Function Attrs: nounwind uwtable
define internal i32 @cgltf_parse_json_dispersion(ptr noundef %0, i32 noundef %1, ptr noundef %2, ptr noundef %3) #0 {
  %5 = alloca i32, align 4
  %6 = alloca ptr, align 8
  %7 = alloca i32, align 4
  %8 = alloca ptr, align 8
  %9 = alloca ptr, align 8
  %10 = alloca i32, align 4
  %11 = alloca i32, align 4
  %12 = alloca i32, align 4
  store ptr %0, ptr %6, align 8
  store i32 %1, ptr %7, align 4
  store ptr %2, ptr %8, align 8
  store ptr %3, ptr %9, align 8
  %13 = load ptr, ptr %6, align 8
  %14 = load i32, ptr %7, align 4
  %15 = sext i32 %14 to i64
  %16 = getelementptr inbounds %struct.jsmntok_t, ptr %13, i64 %15
  %17 = getelementptr inbounds nuw %struct.jsmntok_t, ptr %16, i32 0, i32 0
  %18 = load i32, ptr %17, align 8
  %19 = icmp ne i32 %18, 1
  br i1 %19, label %20, label %21

20:                                               ; preds = %4
  store i32 -1, ptr %5, align 4
  br label %92

21:                                               ; preds = %4
  call void @llvm.lifetime.start.p0(i64 4, ptr %10) #16
  %22 = load ptr, ptr %6, align 8
  %23 = load i32, ptr %7, align 4
  %24 = sext i32 %23 to i64
  %25 = getelementptr inbounds %struct.jsmntok_t, ptr %22, i64 %24
  %26 = getelementptr inbounds nuw %struct.jsmntok_t, ptr %25, i32 0, i32 3
  %27 = load i32, ptr %26, align 8
  store i32 %27, ptr %10, align 4
  %28 = load i32, ptr %7, align 4
  %29 = add nsw i32 %28, 1
  store i32 %29, ptr %7, align 4
  call void @llvm.lifetime.start.p0(i64 4, ptr %11) #16
  store i32 0, ptr %11, align 4
  br label %30

30:                                               ; preds = %84, %21
  %31 = load i32, ptr %11, align 4
  %32 = load i32, ptr %10, align 4
  %33 = icmp slt i32 %31, %32
  br i1 %33, label %35, label %34

34:                                               ; preds = %30
  store i32 2, ptr %12, align 4
  br label %87

35:                                               ; preds = %30
  %36 = load ptr, ptr %6, align 8
  %37 = load i32, ptr %7, align 4
  %38 = sext i32 %37 to i64
  %39 = getelementptr inbounds %struct.jsmntok_t, ptr %36, i64 %38
  %40 = getelementptr inbounds nuw %struct.jsmntok_t, ptr %39, i32 0, i32 0
  %41 = load i32, ptr %40, align 8
  %42 = icmp ne i32 %41, 3
  br i1 %42, label %51, label %43

43:                                               ; preds = %35
  %44 = load ptr, ptr %6, align 8
  %45 = load i32, ptr %7, align 4
  %46 = sext i32 %45 to i64
  %47 = getelementptr inbounds %struct.jsmntok_t, ptr %44, i64 %46
  %48 = getelementptr inbounds nuw %struct.jsmntok_t, ptr %47, i32 0, i32 3
  %49 = load i32, ptr %48, align 8
  %50 = icmp eq i32 %49, 0
  br i1 %50, label %51, label %52

51:                                               ; preds = %43, %35
  store i32 -1, ptr %5, align 4
  store i32 1, ptr %12, align 4
  br label %87

52:                                               ; preds = %43
  %53 = load ptr, ptr %6, align 8
  %54 = load i32, ptr %7, align 4
  %55 = sext i32 %54 to i64
  %56 = getelementptr inbounds %struct.jsmntok_t, ptr %53, i64 %55
  %57 = load ptr, ptr %8, align 8
  %58 = call i32 @cgltf_json_strcmp(ptr noundef %56, ptr noundef %57, ptr noundef @.str.267)
  %59 = icmp eq i32 %58, 0
  br i1 %59, label %60, label %73

60:                                               ; preds = %52
  %61 = load i32, ptr %7, align 4
  %62 = add nsw i32 %61, 1
  store i32 %62, ptr %7, align 4
  %63 = load ptr, ptr %6, align 8
  %64 = load i32, ptr %7, align 4
  %65 = sext i32 %64 to i64
  %66 = getelementptr inbounds %struct.jsmntok_t, ptr %63, i64 %65
  %67 = load ptr, ptr %8, align 8
  %68 = call float @cgltf_json_to_float(ptr noundef %66, ptr noundef %67)
  %69 = load ptr, ptr %9, align 8
  %70 = getelementptr inbounds nuw %struct.cgltf_dispersion, ptr %69, i32 0, i32 0
  store float %68, ptr %70, align 4
  %71 = load i32, ptr %7, align 4
  %72 = add nsw i32 %71, 1
  store i32 %72, ptr %7, align 4
  br label %78

73:                                               ; preds = %52
  %74 = load ptr, ptr %6, align 8
  %75 = load i32, ptr %7, align 4
  %76 = add nsw i32 %75, 1
  %77 = call i32 @cgltf_skip_json(ptr noundef %74, i32 noundef %76)
  store i32 %77, ptr %7, align 4
  br label %78

78:                                               ; preds = %73, %60
  %79 = load i32, ptr %7, align 4
  %80 = icmp slt i32 %79, 0
  br i1 %80, label %81, label %83

81:                                               ; preds = %78
  %82 = load i32, ptr %7, align 4
  store i32 %82, ptr %5, align 4
  store i32 1, ptr %12, align 4
  br label %87

83:                                               ; preds = %78
  br label %84

84:                                               ; preds = %83
  %85 = load i32, ptr %11, align 4
  %86 = add nsw i32 %85, 1
  store i32 %86, ptr %11, align 4
  br label %30

87:                                               ; preds = %81, %51, %34
  call void @llvm.lifetime.end.p0(i64 4, ptr %11) #16
  %88 = load i32, ptr %12, align 4
  switch i32 %88, label %91 [
    i32 2, label %89
  ]

89:                                               ; preds = %87
  %90 = load i32, ptr %7, align 4
  store i32 %90, ptr %5, align 4
  store i32 1, ptr %12, align 4
  br label %91

91:                                               ; preds = %89, %87
  call void @llvm.lifetime.end.p0(i64 4, ptr %10) #16
  br label %92

92:                                               ; preds = %91, %20
  %93 = load i32, ptr %5, align 4
  ret i32 %93
}