; Function Attrs: nofree nounwind uwtable
define internal fastcc i32 @cgltf_parse_json_dispersion(ptr noundef nonnull readonly captures(none) %0, i32 noundef range(i32 1, -2147483648) %1, ptr noundef readonly captures(none) %2, ptr noundef writeonly captures(none) %3) unnamed_addr #26 {
  %5 = alloca [128 x i8], align 16
  %6 = zext nneg i32 %1 to i64
  %7 = getelementptr inbounds nuw %struct.jsmntok_t, ptr %0, i64 %6
  %8 = load i32, ptr %7, align 8
  %.not = icmp eq i32 %8, 1
  br i1 %.not, label %9, label %cgltf_skip_json.exit.thread

9:                                                ; preds = %4
  %10 = getelementptr inbounds nuw i8, ptr %7, i64 24
  %11 = load i32, ptr %10, align 8
  %12 = add nuw nsw i32 %1, 1
  %.not3342 = icmp sgt i32 %11, 0
  br i1 %.not3342, label %.lr.ph, label %cgltf_skip_json.exit.thread

.lr.ph:                                           ; preds = %9, %66
  %.02744 = phi i32 [ %67, %66 ], [ 0, %9 ]
  %.02943 = phi i32 [ %.23140, %66 ], [ %12, %9 ]
  %13 = zext nneg i32 %.02943 to i64
  %14 = getelementptr inbounds nuw %struct.jsmntok_t, ptr %0, i64 %13
  %15 = load i32, ptr %14, align 8
  %.not32 = icmp eq i32 %15, 3
  br i1 %.not32, label %16, label %cgltf_skip_json.exit.thread

16:                                               ; preds = %.lr.ph
  %17 = getelementptr inbounds nuw i8, ptr %14, i64 24
  %18 = load i32, ptr %17, align 8
  %19 = icmp eq i32 %18, 0
  br i1 %19, label %cgltf_skip_json.exit.thread, label %20

20:                                               ; preds = %16
  %21 = getelementptr inbounds nuw i8, ptr %14, i64 16
  %22 = load i64, ptr %21, align 8
  %23 = getelementptr inbounds nuw i8, ptr %14, i64 8
  %24 = load i64, ptr %23, align 8
  %25 = sub nsw i64 %22, %24
  %26 = icmp eq i64 %25, 10
  br i1 %26, label %cgltf_json_strcmp.exit, label %cgltf_json_strcmp.exit.thread

cgltf_json_strcmp.exit:                           ; preds = %20
  %27 = getelementptr inbounds i8, ptr %2, i64 %24
  %28 = call i32 @strncmp(ptr noundef nonnull readonly dereferenceable(1) %27, ptr noundef nonnull dereferenceable(11) @.str.267, i64 noundef 10) #54
  %29 = icmp eq i32 %28, 0
  br i1 %29, label %30, label %cgltf_json_strcmp.exit.thread

30:                                               ; preds = %cgltf_json_strcmp.exit
  %31 = sext i32 %.02943 to i64
  %32 = getelementptr %struct.jsmntok_t, ptr %0, i64 %31
  %33 = getelementptr i8, ptr %32, i64 32
  %34 = load i32, ptr %33, align 8
  %.not.i34 = icmp eq i32 %34, 4
  br i1 %.not.i34, label %35, label %cgltf_skip_json.exit.thread38

35:                                               ; preds = %30
  call void @llvm.lifetime.start.p0(i64 128, ptr nonnull %5) #57
  %36 = getelementptr i8, ptr %32, i64 48
  %37 = load i64, ptr %36, align 8
  %38 = getelementptr i8, ptr %32, i64 40
  %39 = load i64, ptr %38, align 8
  %40 = sub nsw i64 %37, %39
  %spec.select.i = call i64 @llvm.umin.i64(i64 %40, i64 127)
  %41 = getelementptr inbounds i8, ptr %2, i64 %39
  %42 = call ptr @strncpy(ptr noundef nonnull %5, ptr noundef readonly %41, i64 noundef %spec.select.i) #57
  %43 = getelementptr inbounds nuw [128 x i8], ptr %5, i64 0, i64 %spec.select.i
  store i8 0, ptr %43, align 1
  %44 = call double @strtod(ptr noundef nonnull captures(none) %5, ptr noundef null) #57
  %45 = fptrunc double %44 to float
  call void @llvm.lifetime.end.p0(i64 128, ptr nonnull %5) #57
  br label %cgltf_skip_json.exit.thread38

cgltf_skip_json.exit.thread38:                    ; preds = %35, %30
  %.0.i35 = phi float [ %45, %35 ], [ -1.000000e+00, %30 ]
  store float %.0.i35, ptr %3, align 4
  %46 = add nuw nsw i32 %.02943, 2
  br label %66

cgltf_json_strcmp.exit.thread:                    ; preds = %20, %cgltf_json_strcmp.exit
  %47 = add nuw nsw i32 %.02943, 1
  %48 = add nuw nsw i32 %.02943, 2
  %49 = zext nneg i32 %47 to i64
  br label %50

50:                                               ; preds = %62, %cgltf_json_strcmp.exit.thread
  %indvars.iv.i = phi i64 [ %49, %cgltf_json_strcmp.exit.thread ], [ %indvars.iv.next.i, %62 ]
  %.016.i = phi i32 [ %48, %cgltf_json_strcmp.exit.thread ], [ %.1.i, %62 ]
  %51 = getelementptr inbounds nuw %struct.jsmntok_t, ptr %0, i64 %indvars.iv.i
  %52 = load i32, ptr %51, align 8
  switch i32 %52, label %cgltf_skip_json.exit.thread [
    i32 1, label %53
    i32 2, label %58
    i32 4, label %62
    i32 3, label %62
  ]

53:                                               ; preds = %50
  %54 = getelementptr inbounds nuw i8, ptr %51, i64 24
  %55 = load i32, ptr %54, align 8
  %56 = shl nsw i32 %55, 1
  %57 = add nsw i32 %56, %.016.i
  br label %62

58:                                               ; preds = %50
  %59 = getelementptr inbounds nuw i8, ptr %51, i64 24
  %60 = load i32, ptr %59, align 8
  %61 = add nsw i32 %60, %.016.i
  br label %62

62:                                               ; preds = %58, %53, %50, %50
  %.1.i = phi i32 [ %.016.i, %50 ], [ %.016.i, %50 ], [ %61, %58 ], [ %57, %53 ]
  %indvars.iv.next.i = add nuw nsw i64 %indvars.iv.i, 1
  %63 = sext i32 %.1.i to i64
  %64 = icmp slt i64 %indvars.iv.next.i, %63
  br i1 %64, label %50, label %cgltf_skip_json.exit

cgltf_skip_json.exit:                             ; preds = %62
  %65 = trunc nsw i64 %indvars.iv.next.i to i32
  br label %66

66:                                               ; preds = %cgltf_skip_json.exit, %cgltf_skip_json.exit.thread38
  %.23140 = phi i32 [ %46, %cgltf_skip_json.exit.thread38 ], [ %65, %cgltf_skip_json.exit ]
  %67 = add nuw nsw i32 %.02744, 1
  %exitcond.not = icmp eq i32 %67, %11
  br i1 %exitcond.not, label %cgltf_skip_json.exit.thread, label %.lr.ph

cgltf_skip_json.exit.thread:                      ; preds = %.lr.ph, %16, %66, %50, %9, %4
  %.028 = phi i32 [ -1, %4 ], [ %12, %9 ], [ -1, %50 ], [ -1, %.lr.ph ], [ -1, %16 ], [ %.23140, %66 ]
  ret i32 %.028
}